Certificate:
    Data:
        Version: 3 (0x2)
        Serial Number: 10533574792067087360 (0x922ec676d02afc00)
    Signature Algorithm: sha256WithRSAEncryption
        Issuer: C=JP, ST=Osaka, O=Beaglejump Co., Ltd., OU=Graphic Team, CN=Beaglejump Internet Authority G2/emailAddress=hostmaster@beaglejump.co.pkpk
        Validity
            Not Before: Aug 20 02:57:25 2016 GMT
            Not After : Aug 20 02:57:25 2017 GMT
        Subject: C=JP, ST=Osaka, L=Osaka, O=Beaglejump Co., Ltd., OU=Graphic Team, CN=beaglejump.co.pkpk/emailAddress=hostmaster@beaglejump.co.pkpk
        Subject Public Key Info:
            Public Key Algorithm: rsaEncryption
                Public-Key: (2048 bit)
                Modulus:
                    00:b4:f4:46:a0:98:34:4f:ff:e5:7b:ed:5c:0d:51:
                    7f:b4:fd:c3:fc:dd:4d:c6:9e:81:2b:6c:52:c1:4f:
                    30:68:2f:29:60:c8:73:33:77:62:3f:5c:50:46:52:
                    66:21:84:46:4e:36:c2:f0:37:bf:62:6f:6f:ab:5c:
                    1a:4a:88:c7:79:da:05:bc:b9:e0:61:3b:32:a9:1e:
                    07:9d:19:30:62:f5:70:bb:5b:f0:77:f6:47:ff:34:
                    a8:1b:8c:76:78:82:6a:43:e2:e0:56:89:a2:b1:3d:
                    4d:46:f3:b2:9d:b9:c9:2e:ba:94:22:64:f7:06:0d:
                    3e:06:d1:48:41:6f:a6:21:57:5e:00:4a:23:cb:a3:
                    8a:e0:57:99:43:49:7b:29:7e:e2:26:5f:f6:25:0b:
                    82:cb:10:82:2b:08:52:14:e0:47:1f:d9:b9:a9:bf:
                    91:f2:17:a4:68:2a:07:c2:90:76:ed:42:60:67:90:
                    37:4d:ef:cb:ab:a4:93:47:f3:07:25:95:fb:bf:aa:
                    60:27:34:18:aa:ba:9f:a5:4d:d3:51:56:9a:73:22:
                    2e:16:fc:e7:a5:9d:6a:7f:59:f6:00:5e:28:8e:48:
                    d3:72:2c:dd:51:45:ef:b7:df:3f:9e:9a:9d:b9:17:
                    f7:06:0d:bc:c2:91:56:46:aa:b3:60:45:d0:bc:50:
                    ce:67
                Exponent: 65537 (0x10001)
        X509v3 extensions:
            X509v3 Basic Constraints: 
                CA:FALSE
            Netscape Comment: 
                OpenSSL Generated Certificate
            X509v3 Subject Key Identifier: 
                EB:D4:85:32:D7:23:B0:4A:A6:DF:E0:8B:EC:71:14:78:B4:4E:E1:AE
            X509v3 Authority Key Identifier: 
                keyid:E5:FE:72:E0:D5:EA:25:CD:1E:09:FA:59:94:B0:9A:EE:7B:3F:21:D2

    Signature Algorithm: sha256WithRSAEncryption
         79:be:0d:ba:53:76:42:dd:fd:ec:e8:93:83:55:db:b4:f6:4b:
         40:2d:14:5c:67:db:ca:05:d4:f9:fa:e9:19:5a:0d:6b:a8:19:
         d0:3a:9f:4a:fc:d5:6b:bd:1b:b7:22:f6:a1:ab:97:5e:e1:8a:
         f1:bc:79:50:76:2f:5b:63:39:2a:ec:14:ac:db:df:53:c0:3b:
         3a:d9:64:70:2e:67:af:a9:79:46:df:7c:24:9d:fc:2d:bd:0f:
         c4:a3:93:e9:b0:ad:05:39:71:80:b0:49:2e:cd:48:63:af:f2:
         c7:e3:6a:c0:de:c5:1a:3f:5c:66:e5:83:0c:9c:20:d7:51:f0:
         0d:d0:64:79:49:b5:79:01:60:c7:c7:27:56:f5:ed:26:ff:62:
         4f:05:33:91:7b:c8:06:11:3a:f0:30:fb:97:a7:be:14:1f:01:
         5b:ec:7d:6b:8d:ed:97:5e:bc:d6:66:8a:9b:93:40:b5:39:a1:
         8c:97:e2:04:82:3f:5e:cc:dc:96:9c:ec:84:a1:4f:05:46:63:
         42:ac:21:06:cf:92:8b:12:b1:9f:fa:f7:d4:95:6f:2a:84:d3:
         af:f2:c7:02:6a:99:14:9a:43:22:ae:41:61:96:b8:d7:48:94:
         ee:0d:79:1f:e9:64:2d:9c:55:5a:21:9d:be:e3:66:77:e5:92:
         27:39:ba:d3
-----BEGIN CERTIFICATE-----
MIIEWjCCA0KgAwIBAgIJAJIuxnbQKvwAMA0GCSqGSIb3DQEBCwUAMIGsMQswCQYD
VQQGEwJKUDEOMAwGA1UECAwFT3Nha2ExHTAbBgNVBAoMFEJlYWdsZWp1bXAgQ28u
LCBMdGQuMRUwEwYDVQQLDAxHcmFwaGljIFRlYW0xKTAnBgNVBAMMIEJlYWdsZWp1
bXAgSW50ZXJuZXQgQXV0aG9yaXR5IEcyMSwwKgYJKoZIhvcNAQkBFh1ob3N0bWFz
dGVyQGJlYWdsZWp1bXAuY28ucGtwazAeFw0xNjA4MjAwMjU3MjVaFw0xNzA4MjAw
MjU3MjVaMIGuMQswCQYDVQQGEwJKUDEOMAwGA1UECAwFT3Nha2ExDjAMBgNVBAcM
BU9zYWthMR0wGwYDVQQKDBRCZWFnbGVqdW1wIENvLiwgTHRkLjEVMBMGA1UECwwM
R3JhcGhpYyBUZWFtMRswGQYDVQQDDBJiZWFnbGVqdW1wLmNvLnBrcGsxLDAqBgkq
hkiG9w0BCQEWHWhvc3RtYXN0ZXJAYmVhZ2xlanVtcC5jby5wa3BrMIIBIjANBgkq
hkiG9w0BAQEFAAOCAQ8AMIIBCgKCAQEAtPRGoJg0T//le+1cDVF/tP3D/N1Nxp6B
K2xSwU8waC8pYMhzM3diP1xQRlJmIYRGTjbC8De/Ym9vq1waSojHedoFvLngYTsy
qR4HnRkwYvVwu1vwd/ZH/zSoG4x2eIJqQ+LgVomisT1NRvOynbnJLrqUImT3Bg0+
BtFIQW+mIVdeAEojy6OK4FeZQ0l7KX7iJl/2JQuCyxCCKwhSFOBHH9m5qb+R8hek
aCoHwpB27UJgZ5A3Te/Lq6STR/MHJZX7v6pgJzQYqrqfpU3TUVaacyIuFvznpZ1q
f1n2AF4ojkjTcizdUUXvt98/npqduRf3Bg28wpFWRqqzYEXQvFDOZwIDAQABo3sw
eTAJBgNVHRMEAjAAMCwGCWCGSAGG+EIBDQQfFh1PcGVuU1NMIEdlbmVyYXRlZCBD
ZXJ0aWZpY2F0ZTAdBgNVHQ4EFgQU69SFMtcjsEqm3+CL7HEUeLRO4a4wHwYDVR0j
BBgwFoAU5f5y4NXqJc0eCfpZlLCa7ns/IdIwDQYJKoZIhvcNAQELBQADggEBAHm+
DbpTdkLd/ezok4NV27T2S0AtFFxn28oF1Pn66RlaDWuoGdA6n0r81Wu9G7ci9qGr
l17hivG8eVB2L1tjOSrsFKzb31PAOzrZZHAuZ6+peUbffCSd/C29D8Sjk+mwrQU5
cYCwSS7NSGOv8sfjasDexRo/XGblgwycINdR8A3QZHlJtXkBYMfHJ1b17Sb/Yk8F
M5F7yAYROvAw+5envhQfAVvsfWuN7ZdevNZmipuTQLU5oYyX4gSCP17M3Jac7ISh
TwVGY0KsIQbPkosSsZ/699SVbyqE06/yxwJqmRSaQyKuQWGWuNdIlO4NeR/pZC2c
VVohnb7jZnflkic5utM=
-----END CERTIFICATE-----
