Certificate:
    Data:
        Version: 3 (0x2)
        Serial Number: 10533574792067087359 (0x922ec676d02afbff)
    Signature Algorithm: sha256WithRSAEncryption
        Issuer: C=JP, ST=Osaka, O=Beaglejump Co., Ltd., OU=Graphic Team, CN=Beaglejump Internet Authority G2/emailAddress=hostmaster@beaglejump.co.pkpk
        Validity
            Not Before: Aug 19 03:12:18 2016 GMT
            Not After : Aug 19 03:12:18 2019 GMT
        Subject: C=JP, ST=Osaka, O=Beaglejump Co., Ltd., OU=Graphic Team, CN=Beaglejump Internet Authority G2/emailAddress=hostmaster@beaglejump.co.pkpk
        Subject Public Key Info:
            Public Key Algorithm: rsaEncryption
                Public-Key: (2048 bit)
                Modulus:
                    00:a3:5e:15:23:73:e0:a6:3b:05:4e:a7:5e:d5:55:
                    6e:0b:ed:6e:7d:7e:aa:cb:57:b2:04:8c:f0:b2:63:
                    44:a0:47:3d:d8:25:31:54:58:f6:3e:8c:60:dc:08:
                    75:c4:82:25:7d:0e:d6:30:bb:e9:81:ea:37:25:64:
                    5c:41:28:5f:d2:6a:48:61:cd:31:9d:84:84:1f:6f:
                    67:e9:32:29:c8:f8:11:83:2d:dd:0a:a7:1c:e5:ac:
                    53:9a:04:d3:74:e8:12:1f:86:e3:2f:ce:b3:48:0d:
                    1d:72:68:b8:8d:fe:2c:56:f1:d3:e9:dc:e5:e4:e5:
                    df:20:03:4d:b5:15:1a:36:b1:c8:f3:4a:bf:e2:a6:
                    ac:d3:e2:fc:53:03:c3:29:62:30:e0:f4:9a:b1:a9:
                    9d:96:a2:82:c3:21:8b:06:cf:9d:00:a0:0e:85:f0:
                    1c:85:9b:46:f9:1d:26:62:9f:5a:f8:8a:aa:a5:02:
                    a0:94:4a:2b:c0:e8:9a:fc:e4:15:75:5a:e9:bf:95:
                    9a:54:d0:f4:a5:8f:ee:89:9c:55:42:19:98:03:e4:
                    5f:5a:37:74:c9:a1:1d:30:ce:8d:ad:19:ed:3c:24:
                    f4:a4:a1:93:a1:9b:fd:74:f7:d1:00:39:cd:49:92:
                    6b:0b:a4:ee:6c:7c:5c:a0:12:df:9c:f2:c3:fa:04:
                    1e:3b
                Exponent: 65537 (0x10001)
        X509v3 extensions:
            X509v3 Subject Key Identifier: 
                E5:FE:72:E0:D5:EA:25:CD:1E:09:FA:59:94:B0:9A:EE:7B:3F:21:D2
            X509v3 Authority Key Identifier: 
                keyid:E5:FE:72:E0:D5:EA:25:CD:1E:09:FA:59:94:B0:9A:EE:7B:3F:21:D2

            X509v3 Basic Constraints: 
                CA:TRUE
    Signature Algorithm: sha256WithRSAEncryption
         61:91:64:a9:92:15:63:ac:fb:c6:72:7b:cd:8e:e9:70:e9:48:
         7f:cb:e3:41:eb:47:46:f8:ad:ec:f1:03:fb:82:b1:e9:32:82:
         95:91:06:a7:03:cd:0f:5f:6b:9b:7d:43:e0:f2:61:17:0f:3d:
         07:73:d1:72:6e:a8:3b:52:f3:5a:51:93:84:bc:70:6c:7f:c0:
         2f:22:ad:a1:1e:cf:ea:59:a4:84:bd:92:3a:9a:e3:ae:3e:23:
         72:3d:14:c2:24:10:7b:c1:01:3d:59:c3:18:37:ab:10:40:93:
         d0:47:80:f2:0d:e4:d4:79:c4:f7:f7:c1:2a:a3:99:3d:17:c2:
         9f:56:52:fa:72:6d:91:b7:6a:0a:d9:de:f4:ef:c1:21:52:3c:
         4f:61:d9:6d:b7:4c:f2:b3:90:cc:43:0d:38:15:90:a0:fb:67:
         e1:84:73:da:b3:83:2b:46:97:cb:b1:b6:94:5f:14:b3:23:12:
         b7:8b:4e:7b:07:cf:db:d4:2b:8d:d9:06:6c:a0:a4:30:8d:ee:
         22:95:7a:88:82:03:e5:d4:52:31:23:a5:fe:fd:c0:ae:22:6c:
         04:dd:26:4e:22:a6:c5:f9:75:6c:f6:e5:39:ae:c5:79:1b:c7:
         2d:93:b1:06:c7:fc:70:29:ed:31:32:a9:64:af:f2:8d:29:3d:
         40:ab:bf:67
-----BEGIN CERTIFICATE-----
MIIELTCCAxWgAwIBAgIJAJIuxnbQKvv/MA0GCSqGSIb3DQEBCwUAMIGsMQswCQYD
VQQGEwJKUDEOMAwGA1UECAwFT3Nha2ExHTAbBgNVBAoMFEJlYWdsZWp1bXAgQ28u
LCBMdGQuMRUwEwYDVQQLDAxHcmFwaGljIFRlYW0xKTAnBgNVBAMMIEJlYWdsZWp1
bXAgSW50ZXJuZXQgQXV0aG9yaXR5IEcyMSwwKgYJKoZIhvcNAQkBFh1ob3N0bWFz
dGVyQGJlYWdsZWp1bXAuY28ucGtwazAeFw0xNjA4MTkwMzEyMThaFw0xOTA4MTkw
MzEyMThaMIGsMQswCQYDVQQGEwJKUDEOMAwGA1UECAwFT3Nha2ExHTAbBgNVBAoM
FEJlYWdsZWp1bXAgQ28uLCBMdGQuMRUwEwYDVQQLDAxHcmFwaGljIFRlYW0xKTAn
BgNVBAMMIEJlYWdsZWp1bXAgSW50ZXJuZXQgQXV0aG9yaXR5IEcyMSwwKgYJKoZI
hvcNAQkBFh1ob3N0bWFzdGVyQGJlYWdsZWp1bXAuY28ucGtwazCCASIwDQYJKoZI
hvcNAQEBBQADggEPADCCAQoCggEBAKNeFSNz4KY7BU6nXtVVbgvtbn1+qstXsgSM
8LJjRKBHPdglMVRY9j6MYNwIdcSCJX0O1jC76YHqNyVkXEEoX9JqSGHNMZ2EhB9v
Z+kyKcj4EYMt3QqnHOWsU5oE03ToEh+G4y/Os0gNHXJouI3+LFbx0+nc5eTl3yAD
TbUVGjaxyPNKv+KmrNPi/FMDwyliMOD0mrGpnZaigsMhiwbPnQCgDoXwHIWbRvkd
JmKfWviKqqUCoJRKK8DomvzkFXVa6b+VmlTQ9KWP7omcVUIZmAPkX1o3dMmhHTDO
ja0Z7Twk9KShk6Gb/XT30QA5zUmSawuk7mx8XKAS35zyw/oEHjsCAwEAAaNQME4w
HQYDVR0OBBYEFOX+cuDV6iXNHgn6WZSwmu57PyHSMB8GA1UdIwQYMBaAFOX+cuDV
6iXNHgn6WZSwmu57PyHSMAwGA1UdEwQFMAMBAf8wDQYJKoZIhvcNAQELBQADggEB
AGGRZKmSFWOs+8Zye82O6XDpSH/L40HrR0b4rezxA/uCsekygpWRBqcDzQ9fa5t9
Q+DyYRcPPQdz0XJuqDtS81pRk4S8cGx/wC8iraEez+pZpIS9kjqa464+I3I9FMIk
EHvBAT1Zwxg3qxBAk9BHgPIN5NR5xPf3wSqjmT0Xwp9WUvpybZG3agrZ3vTvwSFS
PE9h2W23TPKzkMxDDTgVkKD7Z+GEc9qzgytGl8uxtpRfFLMjEreLTnsHz9vUK43Z
BmygpDCN7iKVeoiCA+XUUjEjpf79wK4ibATdJk4ipsX5dWz25TmuxXkbxy2TsQbH
/HAp7TEyqWSv8o0pPUCrv2c=
-----END CERTIFICATE-----
